; Function Attrs: mustprogress uwtable
define void @_Z22grpc_shutdown_internalPv(ptr nocapture readnone %0) #3 personality ptr @__gxx_personality_v0 {
entry:
  %1 = load atomic i8, ptr getelementptr inbounds (%"class.grpc_core::TraceFlag", ptr @grpc_api_trace, i64 0, i32 2, i32 0, i32 0) monotonic, align 8
  %2 = and i8 %1, 1
  %tobool.i.i.i.not = icmp eq i8 %2, 0
  br i1 %tobool.i.i.i.not, label %if.end, label %if.then

if.then:                                          ; preds = %entry
  tail call void (ptr, i32, i32, ptr, ...) @gpr_log(ptr noundef nonnull @.str, i32 noundef 140, i32 noundef 1, ptr noundef nonnull @.str.6)
  br label %if.end

if.end:                                           ; preds = %if.then, %entry
  %3 = load ptr, ptr @_ZL9g_init_mu, align 8
  tail call void @_ZN4absl12lts_202308025Mutex4LockEv(ptr noundef nonnull align 8 dereferenceable(8) %3)
  %4 = load i32, ptr @_ZL17g_initializations, align 4
  %dec = add nsw i32 %4, -1
  store i32 %dec, ptr @_ZL17g_initializations, align 4
  %cmp.not = icmp eq i32 %dec, 0
  br i1 %cmp.not, label %if.end2, label %cleanup

if.end2:                                          ; preds = %if.end
  invoke void @_Z29grpc_shutdown_internal_lockedv()
          to label %cleanup unwind label %lpad

cleanup:                                          ; preds = %if.end2, %if.end
  invoke void @_ZN4absl12lts_202308025Mutex6UnlockEv(ptr noundef nonnull align 8 dereferenceable(8) %3)
          to label %_ZN4absl12lts_202308029MutexLockD2Ev.exit unwind label %terminate.lpad.i

terminate.lpad.i:                                 ; preds = %cleanup
  %5 = landingpad { ptr, i32 }
          catch ptr null
  %6 = extractvalue { ptr, i32 } %5, 0
  tail call void @__clang_call_terminate(ptr %6) #15
  unreachable

_ZN4absl12lts_202308029MutexLockD2Ev.exit:        ; preds = %cleanup
  ret void

lpad:                                             ; preds = %if.end2
  %7 = landingpad { ptr, i32 }
          cleanup
  invoke void @_ZN4absl12lts_202308025Mutex6UnlockEv(ptr noundef nonnull align 8 dereferenceable(8) %3)
          to label %_ZN4absl12lts_202308029MutexLockD2Ev.exit2 unwind label %terminate.lpad.i1

terminate.lpad.i1:                                ; preds = %lpad
  %8 = landingpad { ptr, i32 }
          catch ptr null
  %9 = extractvalue { ptr, i32 } %8, 0
  tail call void @__clang_call_terminate(ptr %9) #15
  unreachable

_ZN4absl12lts_202308029MutexLockD2Ev.exit2:       ; preds = %lpad
  resume { ptr, i32 } %7
}